target datalayout = "e-m:e-p270:32:32-p271:32:32-p272:64:64-i64:64-i128:128-f80:128-n8:16:32:64-S128"
target triple = "x86_64-unknown-linux-gnu"

%"class.icu_75::UObject" = type { ptr }
%"class.icu_75::Normalizer2WithImpl" = type { %"class.icu_75::Normalizer2", ptr }
%"class.icu_75::Normalizer2" = type { %"class.icu_75::UObject" }
%"struct.icu_75::Norm2AllModes" = type { ptr, %"class.icu_75::ComposeNormalizer2", %"class.icu_75::DecomposeNormalizer2", %"class.icu_75::FCDNormalizer2", %"class.icu_75::ComposeNormalizer2" }
%"class.icu_75::DecomposeNormalizer2" = type { %"class.icu_75::Normalizer2WithImpl" }
%"class.icu_75::FCDNormalizer2" = type { %"class.icu_75::Normalizer2WithImpl" }
%"class.icu_75::ComposeNormalizer2" = type <{ %"class.icu_75::Normalizer2WithImpl", i8, [7 x i8] }>

@_ZN6icu_7520DecomposeNormalizer2D1Ev = unnamed_addr alias void (ptr), ptr @_ZN6icu_7520DecomposeNormalizer2D2Ev
@_ZN6icu_7518ComposeNormalizer2D1Ev = unnamed_addr alias void (ptr), ptr @_ZN6icu_7518ComposeNormalizer2D2Ev
@_ZN6icu_7514FCDNormalizer2D1Ev = unnamed_addr alias void (ptr), ptr @_ZN6icu_7514FCDNormalizer2D2Ev

; Function Attrs: mustprogress nounwind uwtable
define void @_ZN6icu_7513Norm2AllModesD2Ev(ptr noundef nonnull align 8 dereferenceable(88) %this) unnamed_addr #0 align 2 {
entry:
  %this.addr = alloca ptr, align 8
  store ptr %this, ptr %this.addr, align 8
  %this1 = load ptr, ptr %this.addr, align 8
  %impl = getelementptr inbounds %"struct.icu_75::Norm2AllModes", ptr %this1, i32 0, i32 0
  %0 = load ptr, ptr %impl, align 8
  %isnull = icmp eq ptr %0, null
  br i1 %isnull, label %delete.end, label %delete.notnull

delete.notnull:                                   ; preds = %entry
  %vtable = load ptr, ptr %0, align 8
  %vfn = getelementptr inbounds ptr, ptr %vtable, i64 1
  %1 = load ptr, ptr %vfn, align 8
  call void %1(ptr noundef nonnull align 8 dereferenceable(80) %0) #8
  br label %delete.end

delete.end:                                       ; preds = %delete.notnull, %entry
  %fcc = getelementptr inbounds %"struct.icu_75::Norm2AllModes", ptr %this1, i32 0, i32 4
  call void @_ZN6icu_7518ComposeNormalizer2D1Ev(ptr noundef nonnull align 8 dereferenceable(17) %fcc) #8
  %fcd = getelementptr inbounds %"struct.icu_75::Norm2AllModes", ptr %this1, i32 0, i32 3
  call void @_ZN6icu_7514FCDNormalizer2D1Ev(ptr noundef nonnull align 8 dereferenceable(16) %fcd) #8
  %decomp = getelementptr inbounds %"struct.icu_75::Norm2AllModes", ptr %this1, i32 0, i32 2
  call void @_ZN6icu_7520DecomposeNormalizer2D1Ev(ptr noundef nonnull align 8 dereferenceable(16) %decomp) #8
  %comp = getelementptr inbounds %"struct.icu_75::Norm2AllModes", ptr %this1, i32 0, i32 1
  call void @_ZN6icu_7518ComposeNormalizer2D1Ev(ptr noundef nonnull align 8 dereferenceable(17) %comp) #8
  ret void
}