; Function Attrs: mustprogress nounwind uwtable
define void @_ZN6icu_7513Norm2AllModesD2Ev(ptr noundef nonnull align 8 dereferenceable(88) %this) unnamed_addr #0 align 2 {
entry:
  %0 = load ptr, ptr %this, align 8
  %isnull = icmp eq ptr %0, null
  br i1 %isnull, label %delete.end, label %delete.notnull

delete.notnull:                                   ; preds = %entry
  %vtable = load ptr, ptr %0, align 8
  %vfn = getelementptr inbounds i8, ptr %vtable, i64 8
  %1 = load ptr, ptr %vfn, align 8
  tail call void %1(ptr noundef nonnull align 8 dereferenceable(80) %0) #13
  br label %delete.end

delete.end:                                       ; preds = %delete.notnull, %entry
  %fcc = getelementptr inbounds i8, ptr %this, i64 64
  tail call void @_ZN6icu_7518ComposeNormalizer2D1Ev(ptr noundef nonnull align 8 dereferenceable(17) %fcc) #13
  %fcd = getelementptr inbounds i8, ptr %this, i64 48
  tail call void @_ZN6icu_7514FCDNormalizer2D1Ev(ptr noundef nonnull align 8 dereferenceable(16) %fcd) #13
  %decomp = getelementptr inbounds i8, ptr %this, i64 32
  tail call void @_ZN6icu_7520DecomposeNormalizer2D1Ev(ptr noundef nonnull align 8 dereferenceable(16) %decomp) #13
  %comp = getelementptr inbounds i8, ptr %this, i64 8
  tail call void @_ZN6icu_7518ComposeNormalizer2D1Ev(ptr noundef nonnull align 8 dereferenceable(17) %comp) #13
  ret void
}